target datalayout = "e-m:e-p270:32:32-p271:32:32-p272:64:64-i64:64-i128:128-f80:128-n8:16:32:64-S128"
target triple = "x86_64-pc-linux-gnu"

%"struct.Luau::CodeGen::X64::RegisterX64" = type { i8 }
%"struct.std::array.74" = type { [4 x %"struct.Luau::CodeGen::X64::OperandX64"] }
%"struct.Luau::CodeGen::X64::OperandX64" = type { i8, %"struct.Luau::CodeGen::X64::RegisterX64", %"struct.Luau::CodeGen::X64::RegisterX64", i8, i32 }
%"struct.std::array.75" = type { [6 x %"struct.Luau::CodeGen::X64::OperandX64"] }
%"class.Luau::CodeGen::X64::IrCallWrapperX64" = type { ptr, ptr, i32, %"struct.std::array", i32, i32, i32, %"struct.Luau::CodeGen::X64::OperandX64", %"struct.std::array.0", %"struct.std::array.0" }
%"struct.std::array" = type { [6 x %"struct.Luau::CodeGen::X64::CallArgument"] }
%"struct.Luau::CodeGen::X64::CallArgument" = type <{ i8, [3 x i8], %"struct.Luau::CodeGen::X64::OperandX64", %"struct.Luau::CodeGen::IrOp", %"struct.Luau::CodeGen::X64::OperandX64", i8, [3 x i8] }>
%"struct.Luau::CodeGen::IrOp" = type { i32 }
%"struct.std::array.0" = type { [16 x i8] }
%"class.Luau::CodeGen::X64::AssemblyBuilderX64" = type <{ %"class.std::vector.3", %"class.std::vector.3", %"class.std::__cxx11::basic_string", i8, [3 x i8], i32, i32, [4 x i8], %"class.std::vector.11", %"class.std::vector.16", %"class.Luau::DenseHashMap", %"class.Luau::DenseHashMap.21", i8, [7 x i8], i64, ptr, ptr, i32, [4 x i8] }>
%"class.std::vector.3" = type { %"struct.std::_Vector_base.4" }
%"struct.std::_Vector_base.4" = type { %"struct.std::_Vector_base<unsigned char, std::allocator<unsigned char>>::_Vector_impl" }
%"struct.std::_Vector_base<unsigned char, std::allocator<unsigned char>>::_Vector_impl" = type { %"struct.std::_Vector_base<unsigned char, std::allocator<unsigned char>>::_Vector_impl_data" }
%"struct.std::_Vector_base<unsigned char, std::allocator<unsigned char>>::_Vector_impl_data" = type { ptr, ptr, ptr }
%"class.std::__cxx11::basic_string" = type { %"struct.std::__cxx11::basic_string<char>::_Alloc_hider", i64, %union.anon }
%"struct.std::__cxx11::basic_string<char>::_Alloc_hider" = type { ptr }
%union.anon = type { i64, [8 x i8] }
%"class.std::vector.11" = type { %"struct.std::_Vector_base.12" }
%"struct.std::_Vector_base.12" = type { %"struct.std::_Vector_base<Luau::CodeGen::Label, std::allocator<Luau::CodeGen::Label>>::_Vector_impl" }
%"struct.std::_Vector_base<Luau::CodeGen::Label, std::allocator<Luau::CodeGen::Label>>::_Vector_impl" = type { %"struct.std::_Vector_base<Luau::CodeGen::Label, std::allocator<Luau::CodeGen::Label>>::_Vector_impl_data" }
%"struct.std::_Vector_base<Luau::CodeGen::Label, std::allocator<Luau::CodeGen::Label>>::_Vector_impl_data" = type { ptr, ptr, ptr }
%"class.std::vector.16" = type { %"struct.std::_Vector_base.17" }
%"struct.std::_Vector_base.17" = type { %"struct.std::_Vector_base<unsigned int, std::allocator<unsigned int>>::_Vector_impl" }
%"struct.std::_Vector_base<unsigned int, std::allocator<unsigned int>>::_Vector_impl" = type { %"struct.std::_Vector_base<unsigned int, std::allocator<unsigned int>>::_Vector_impl_data" }
%"struct.std::_Vector_base<unsigned int, std::allocator<unsigned int>>::_Vector_impl_data" = type { ptr, ptr, ptr }
%"class.Luau::DenseHashMap" = type { %"class.Luau::detail::DenseHashTable" }
%"class.Luau::detail::DenseHashTable" = type <{ ptr, i64, i64, i32, [4 x i8] }>
%"class.Luau::DenseHashMap.21" = type { %"class.Luau::detail::DenseHashTable.22" }
%"class.Luau::detail::DenseHashTable.22" = type <{ ptr, i64, i64, i64, [8 x i8] }>

; Function Attrs: mustprogress nounwind uwtable
define linkonce_odr dso_local noundef nonnull align 4 dereferenceable(8) ptr @_ZNSt14__array_traitsIN4Luau7CodeGen3X6410OperandX64ELm6EE6_S_refERA6_KS3_m(ptr noundef nonnull align 4 dereferenceable(48) %0, i64 noundef %1) #3 comdat align 2 {
  %3 = alloca ptr, align 8
  %4 = alloca i64, align 8
  store ptr %0, ptr %3, align 8, !tbaa !30
  store i64 %1, ptr %4, align 8, !tbaa !83
  %5 = load ptr, ptr %3, align 8, !tbaa !30
  %6 = load i64, ptr %4, align 8, !tbaa !83
  %7 = getelementptr inbounds nuw [6 x %"struct.Luau::CodeGen::X64::OperandX64"], ptr %5, i64 0, i64 %6
  ret ptr %7
}

; Function Attrs: mustprogress nounwind uwtable
define linkonce_odr dso_local noundef nonnull align 4 dereferenceable(8) ptr @_ZNSt14__array_traitsIN4Luau7CodeGen3X6410OperandX64ELm4EE6_S_refERA4_KS3_m(ptr noundef nonnull align 4 dereferenceable(32) %0, i64 noundef %1) #3 comdat align 2 {
  %3 = alloca ptr, align 8
  %4 = alloca i64, align 8
  store ptr %0, ptr %3, align 8, !tbaa !30
  store i64 %1, ptr %4, align 8, !tbaa !83
  %5 = load ptr, ptr %3, align 8, !tbaa !30
  %6 = load i64, ptr %4, align 8, !tbaa !83
  %7 = getelementptr inbounds nuw [4 x %"struct.Luau::CodeGen::X64::OperandX64"], ptr %5, i64 0, i64 %6
  ret ptr %7
}

; Function Attrs: mustprogress nounwind uwtable
define linkonce_odr dso_local noundef nonnull align 4 dereferenceable(8) ptr @_ZNKSt5arrayIN4Luau7CodeGen3X6410OperandX64ELm6EEixEm(ptr noundef nonnull align 4 dereferenceable(48) %0, i64 noundef %1) #3 comdat align 2 {
  %3 = alloca ptr, align 8
  %4 = alloca i64, align 8
  store ptr %0, ptr %3, align 8, !tbaa !84
  store i64 %1, ptr %4, align 8, !tbaa !83
  %5 = load ptr, ptr %3, align 8
  %6 = getelementptr inbounds nuw %"struct.std::array.75", ptr %5, i32 0, i32 0
  %7 = load i64, ptr %4, align 8, !tbaa !83
  %8 = call noundef nonnull align 4 dereferenceable(8) ptr @_ZNSt14__array_traitsIN4Luau7CodeGen3X6410OperandX64ELm6EE6_S_refERA6_KS3_m(ptr noundef nonnull align 4 dereferenceable(48) %6, i64 noundef %7) #10
  ret ptr %8
}

; Function Attrs: mustprogress nounwind uwtable
define linkonce_odr dso_local noundef nonnull align 4 dereferenceable(8) ptr @_ZNKSt5arrayIN4Luau7CodeGen3X6410OperandX64ELm4EEixEm(ptr noundef nonnull align 4 dereferenceable(32) %0, i64 noundef %1) #3 comdat align 2 {
  %3 = alloca ptr, align 8
  %4 = alloca i64, align 8
  store ptr %0, ptr %3, align 8, !tbaa !122
  store i64 %1, ptr %4, align 8, !tbaa !83
  %5 = load ptr, ptr %3, align 8
  %6 = getelementptr inbounds nuw %"struct.std::array.74", ptr %5, i32 0, i32 0
  %7 = load i64, ptr %4, align 8, !tbaa !83
  %8 = call noundef nonnull align 4 dereferenceable(8) ptr @_ZNSt14__array_traitsIN4Luau7CodeGen3X6410OperandX64ELm4EE6_S_refERA4_KS3_m(ptr noundef nonnull align 4 dereferenceable(32) %6, i64 noundef %7) #10
  ret ptr %8
}

; Function Attrs: mustprogress nounwind uwtable
define dso_local i64 @_ZNK4Luau7CodeGen3X6416IrCallWrapperX6421getNextArgumentTargetENS1_7SizeX64E(ptr noundef nonnull align 8 dereferenceable(240) %0, i8 noundef zeroext %1) #3 align 2 {
  %3 = alloca %"struct.Luau::CodeGen::X64::OperandX64", align 4
  %4 = alloca ptr, align 8
  %5 = alloca i8, align 1
  %6 = alloca ptr, align 8
  store ptr %0, ptr %4, align 8, !tbaa !4
  store i8 %1, ptr %5, align 1, !tbaa !38
  %7 = load ptr, ptr %4, align 8
  %8 = load i8, ptr %5, align 1, !tbaa !38
  %9 = icmp eq i8 %8, 5
  br i1 %9, label %10, label %15

10:                                               ; preds = %2
  %11 = getelementptr inbounds nuw %"class.Luau::CodeGen::X64::IrCallWrapperX64", ptr %7, i32 0, i32 6
  %12 = load i32, ptr %11, align 4, !tbaa !25
  %13 = sext i32 %12 to i64
  %14 = call noundef nonnull align 4 dereferenceable(8) ptr @_ZNKSt5arrayIN4Luau7CodeGen3X6410OperandX64ELm4EEixEm(ptr noundef nonnull align 4 dereferenceable(32) @_ZN4Luau7CodeGen3X64L9kXmmOrderE, i64 noundef %13) #10
  call void @llvm.memcpy.p0.p0.i64(ptr align 4 %3, ptr align 4 %14, i64 8, i1 false), !tbaa.struct !46
  br label %53

15:                                               ; preds = %2
  call void @llvm.lifetime.start.p0(i64 8, ptr %6) #10
  %16 = getelementptr inbounds nuw %"class.Luau::CodeGen::X64::IrCallWrapperX64", ptr %7, i32 0, i32 1
  %17 = load ptr, ptr %16, align 8, !tbaa !52
  %18 = getelementptr inbounds nuw %"class.Luau::CodeGen::X64::AssemblyBuilderX64", ptr %17, i32 0, i32 5
  %19 = load i32, ptr %18, align 4, !tbaa !53
  %20 = icmp eq i32 %19, 0
  br i1 %20, label %21, label %22

21:                                               ; preds = %15
  br label %23

22:                                               ; preds = %15
  br label %23

23:                                               ; preds = %22, %21
  %24 = phi ptr [ @_ZN4Luau7CodeGen3X64L16kWindowsGprOrderE, %21 ], [ @_ZN4Luau7CodeGen3X64L16kSystemvGprOrderE, %22 ]
  store ptr %24, ptr %6, align 8, !tbaa !84
  %25 = load ptr, ptr %6, align 8, !tbaa !84
  %26 = getelementptr inbounds nuw %"class.Luau::CodeGen::X64::IrCallWrapperX64", ptr %7, i32 0, i32 5
  %27 = load i32, ptr %26, align 8, !tbaa !24
  %28 = sext i32 %27 to i64
  %29 = call noundef nonnull align 4 dereferenceable(8) ptr @_ZNKSt5arrayIN4Luau7CodeGen3X6410OperandX64ELm6EEixEm(ptr noundef nonnull align 4 dereferenceable(48) %25, i64 noundef %28) #10
  call void @llvm.memcpy.p0.p0.i64(ptr align 4 %3, ptr align 4 %29, i64 8, i1 false), !tbaa.struct !46
  %30 = getelementptr inbounds nuw %"struct.Luau::CodeGen::X64::OperandX64", ptr %3, i32 0, i32 0
  %31 = load i8, ptr %30, align 4, !tbaa !32
  %32 = icmp eq i8 %31, 0
  br i1 %32, label %33, label %40

33:                                               ; preds = %23
  %34 = load i8, ptr %5, align 1, !tbaa !38
  %35 = getelementptr inbounds nuw %"struct.Luau::CodeGen::X64::OperandX64", ptr %3, i32 0, i32 2
  %36 = load i8, ptr %35, align 2
  %37 = and i8 %34, 7
  %38 = and i8 %36, -8
  %39 = or i8 %38, %37
  store i8 %39, ptr %35, align 2
  br label %52

40:                                               ; preds = %23
  %41 = getelementptr inbounds nuw %"struct.Luau::CodeGen::X64::OperandX64", ptr %3, i32 0, i32 0
  %42 = load i8, ptr %41, align 4, !tbaa !32
  %43 = icmp eq i8 %42, 1
  br i1 %43, label %44, label %51

44:                                               ; preds = %40
  %45 = load i8, ptr %5, align 1, !tbaa !38
  %46 = getelementptr inbounds nuw %"struct.Luau::CodeGen::X64::OperandX64", ptr %3, i32 0, i32 3
  %47 = load i8, ptr %46, align 1
  %48 = and i8 %45, 15
  %49 = and i8 %47, -16
  %50 = or i8 %49, %48
  store i8 %50, ptr %46, align 1
  br label %51

51:                                               ; preds = %44, %40
  br label %52

52:                                               ; preds = %51, %33
  call void @llvm.lifetime.end.p0(i64 8, ptr %6) #10
  br label %53

53:                                               ; preds = %52, %10
  %54 = load i64, ptr %3, align 4
  ret i64 %54
}

; Function Attrs: mustprogress uwtable
define dso_local i8 @_ZNK4Luau7CodeGen3X6416IrCallWrapperX6427suggestNextArgumentRegisterENS1_7SizeX64E(ptr noundef nonnull align 8 dereferenceable(240) %0, i8 noundef zeroext %1) #0 align 2 {
  %3 = alloca %"struct.Luau::CodeGen::X64::RegisterX64", align 1
  %4 = alloca ptr, align 8
  %5 = alloca i8, align 1
  %6 = alloca %"struct.Luau::CodeGen::X64::OperandX64", align 4
  %7 = alloca i32, align 4
  %8 = alloca %"struct.Luau::CodeGen::X64::RegisterX64", align 1
  %9 = alloca %"struct.Luau::CodeGen::X64::RegisterX64", align 1
  store ptr %0, ptr %4, align 8, !tbaa !4
  store i8 %1, ptr %5, align 1, !tbaa !38
  %10 = load ptr, ptr %4, align 8
  call void @llvm.lifetime.start.p0(i64 8, ptr %6) #10
  %11 = load i8, ptr %5, align 1, !tbaa !38
  %12 = call i64 @_ZNK4Luau7CodeGen3X6416IrCallWrapperX6421getNextArgumentTargetENS1_7SizeX64E(ptr noundef nonnull align 8 dereferenceable(240) %10, i8 noundef zeroext %11)
  store i64 %12, ptr %6, align 4
  %13 = getelementptr inbounds nuw %"struct.Luau::CodeGen::X64::OperandX64", ptr %6, i32 0, i32 0
  %14 = load i8, ptr %13, align 4, !tbaa !32
  %15 = icmp ne i8 %14, 0
  br i1 %15, label %16, label %22

16:                                               ; preds = %2
  %17 = getelementptr inbounds nuw %"class.Luau::CodeGen::X64::IrCallWrapperX64", ptr %10, i32 0, i32 0
  %18 = load ptr, ptr %17, align 8, !tbaa !90
  %19 = load i8, ptr %5, align 1, !tbaa !38
  %20 = call i8 @_ZN4Luau7CodeGen3X6413IrRegAllocX648allocRegENS1_7SizeX64Ej(ptr noundef nonnull align 8 dereferenceable(256) %18, i8 noundef zeroext %19, i32 noundef -1)
  %21 = getelementptr inbounds nuw %"struct.Luau::CodeGen::X64::RegisterX64", ptr %3, i32 0, i32 0
  store i8 %20, ptr %21, align 1
  store i32 1, ptr %7, align 4
  br label %43

22:                                               ; preds = %2
  %23 = getelementptr inbounds nuw %"class.Luau::CodeGen::X64::IrCallWrapperX64", ptr %10, i32 0, i32 0
  %24 = load ptr, ptr %23, align 8, !tbaa !90
  %25 = getelementptr inbounds nuw %"struct.Luau::CodeGen::X64::OperandX64", ptr %6, i32 0, i32 2
  call void @llvm.memcpy.p0.p0.i64(ptr align 1 %8, ptr align 2 %25, i64 1, i1 false), !tbaa.struct !26
  %26 = getelementptr inbounds nuw %"struct.Luau::CodeGen::X64::RegisterX64", ptr %8, i32 0, i32 0
  %27 = load i8, ptr %26, align 1
  %28 = call noundef zeroext i1 @_ZNK4Luau7CodeGen3X6413IrRegAllocX6410canTakeRegENS1_11RegisterX64E(ptr noundef nonnull align 8 dereferenceable(256) %24, i8 %27)
  br i1 %28, label %35, label %29

29:                                               ; preds = %22
  %30 = getelementptr inbounds nuw %"class.Luau::CodeGen::X64::IrCallWrapperX64", ptr %10, i32 0, i32 0
  %31 = load ptr, ptr %30, align 8, !tbaa !90
  %32 = load i8, ptr %5, align 1, !tbaa !38
  %33 = call i8 @_ZN4Luau7CodeGen3X6413IrRegAllocX648allocRegENS1_7SizeX64Ej(ptr noundef nonnull align 8 dereferenceable(256) %31, i8 noundef zeroext %32, i32 noundef -1)
  %34 = getelementptr inbounds nuw %"struct.Luau::CodeGen::X64::RegisterX64", ptr %3, i32 0, i32 0
  store i8 %33, ptr %34, align 1
  store i32 1, ptr %7, align 4
  br label %43

35:                                               ; preds = %22
  %36 = getelementptr inbounds nuw %"class.Luau::CodeGen::X64::IrCallWrapperX64", ptr %10, i32 0, i32 0
  %37 = load ptr, ptr %36, align 8, !tbaa !90
  %38 = getelementptr inbounds nuw %"struct.Luau::CodeGen::X64::OperandX64", ptr %6, i32 0, i32 2
  call void @llvm.memcpy.p0.p0.i64(ptr align 1 %9, ptr align 2 %38, i64 1, i1 false), !tbaa.struct !26
  %39 = getelementptr inbounds nuw %"struct.Luau::CodeGen::X64::RegisterX64", ptr %9, i32 0, i32 0
  %40 = load i8, ptr %39, align 1
  %41 = call i8 @_ZN4Luau7CodeGen3X6413IrRegAllocX647takeRegENS1_11RegisterX64Ej(ptr noundef nonnull align 8 dereferenceable(256) %37, i8 %40, i32 noundef -1)
  %42 = getelementptr inbounds nuw %"struct.Luau::CodeGen::X64::RegisterX64", ptr %3, i32 0, i32 0
  store i8 %41, ptr %42, align 1
  store i32 1, ptr %7, align 4
  br label %43

43:                                               ; preds = %35, %29, %16
  call void @llvm.lifetime.end.p0(i64 8, ptr %6) #10
  %44 = getelementptr inbounds nuw %"struct.Luau::CodeGen::X64::RegisterX64", ptr %3, i32 0, i32 0
  %45 = load i8, ptr %44, align 1
  ret i8 %45
}