; Function Attrs: mustprogress uwtable
define dso_local i8 @_ZNK4Luau7CodeGen3X6416IrCallWrapperX6427suggestNextArgumentRegisterENS1_7SizeX64E(ptr noundef nonnull readonly align 8 captures(none) dereferenceable(240) %0, i8 noundef zeroext %1) local_unnamed_addr #4 align 2 {
  %3 = icmp eq i8 %1, 5
  br i1 %3, label %4, label %8

4:                                                ; preds = %2
  %5 = getelementptr inbounds nuw i8, ptr %0, i64 196
  %6 = load i32, ptr %5, align 4, !tbaa !33
  %7 = sext i32 %6 to i64
  %.sroa.59.0..sroa_idx.i = getelementptr inbounds nuw [4 x %"struct.Luau::CodeGen::X64::OperandX64"], ptr @_ZN4Luau7CodeGen3X64L9kXmmOrderE, i64 0, i64 %7, i32 2
  %.sroa.59.0.copyload.i = load i8, ptr %.sroa.59.0..sroa_idx.i, align 2, !tbaa !26
  br label %24

8:                                                ; preds = %2
  %9 = getelementptr inbounds nuw i8, ptr %0, i64 8
  %10 = load ptr, ptr %9, align 8, !tbaa !34
  %11 = getelementptr inbounds nuw i8, ptr %10, i64 84
  %12 = load i32, ptr %11, align 4, !tbaa !35
  %13 = icmp eq i32 %12, 0
  %_ZN4Luau7CodeGen3X64L16kWindowsGprOrderE._ZN4Luau7CodeGen3X64L16kSystemvGprOrderE.i = select i1 %13, ptr @_ZN4Luau7CodeGen3X64L16kWindowsGprOrderE, ptr @_ZN4Luau7CodeGen3X64L16kSystemvGprOrderE
  %14 = getelementptr inbounds nuw i8, ptr %0, i64 192
  %15 = load i32, ptr %14, align 8, !tbaa !66
  %16 = sext i32 %15 to i64
  %17 = getelementptr inbounds nuw [6 x %"struct.Luau::CodeGen::X64::OperandX64"], ptr %_ZN4Luau7CodeGen3X64L16kWindowsGprOrderE._ZN4Luau7CodeGen3X64L16kSystemvGprOrderE.i, i64 0, i64 %16
  %.sroa.0.0.copyload5.i = load i8, ptr %17, align 4, !tbaa !31
  %cond = icmp eq i8 %.sroa.0.0.copyload5.i, 0
  br i1 %cond, label %18, label %_ZNK4Luau7CodeGen3X6416IrCallWrapperX6421getNextArgumentTargetENS1_7SizeX64E.exit

18:                                               ; preds = %8
  %.sroa.59.0..sroa_idx10.i = getelementptr inbounds nuw i8, ptr %17, i64 2
  %.sroa.59.0.copyload11.i = load i8, ptr %.sroa.59.0..sroa_idx10.i, align 2, !tbaa !26
  %19 = and i8 %1, 7
  %20 = and i8 %.sroa.59.0.copyload11.i, -8
  %21 = or disjoint i8 %20, %19
  br label %24

_ZNK4Luau7CodeGen3X6416IrCallWrapperX6421getNextArgumentTargetENS1_7SizeX64E.exit: ; preds = %8
  %22 = load ptr, ptr %0, align 8, !tbaa !70
  %23 = tail call i8 @_ZN4Luau7CodeGen3X6413IrRegAllocX648allocRegENS1_7SizeX64Ej(ptr noundef nonnull align 8 dereferenceable(256) %22, i8 noundef zeroext %1, i32 noundef -1)
  br label %32

24:                                               ; preds = %4, %18
  %.sroa.59.0.i.ph = phi i8 [ %21, %18 ], [ %.sroa.59.0.copyload.i, %4 ]
  %25 = load ptr, ptr %0, align 8, !tbaa !70
  %26 = tail call noundef zeroext i1 @_ZNK4Luau7CodeGen3X6413IrRegAllocX6410canTakeRegENS1_11RegisterX64E(ptr noundef nonnull align 8 dereferenceable(256) %25, i8 %.sroa.59.0.i.ph)
  %27 = load ptr, ptr %0, align 8, !tbaa !70
  br i1 %26, label %30, label %28

28:                                               ; preds = %24
  %29 = tail call i8 @_ZN4Luau7CodeGen3X6413IrRegAllocX648allocRegENS1_7SizeX64Ej(ptr noundef nonnull align 8 dereferenceable(256) %27, i8 noundef zeroext %1, i32 noundef -1)
  br label %32

30:                                               ; preds = %24
  %31 = tail call i8 @_ZN4Luau7CodeGen3X6413IrRegAllocX647takeRegENS1_11RegisterX64Ej(ptr noundef nonnull align 8 dereferenceable(256) %27, i8 %.sroa.59.0.i.ph, i32 noundef -1)
  br label %32

32:                                               ; preds = %30, %28, %_ZNK4Luau7CodeGen3X6416IrCallWrapperX6421getNextArgumentTargetENS1_7SizeX64E.exit
  %.sroa.06.0 = phi i8 [ %23, %_ZNK4Luau7CodeGen3X6416IrCallWrapperX6421getNextArgumentTargetENS1_7SizeX64E.exit ], [ %31, %30 ], [ %29, %28 ]
  ret i8 %.sroa.06.0
}